target datalayout = "e-m:e-p270:32:32-p271:32:32-p272:64:64-i64:64-i128:128-f80:128-n8:16:32:64-S128"
target triple = "x86_64-pc-linux-gnu"

%struct.H5EA_hdr_cache_ud_t = type { ptr, i64, ptr }

@H5EA_init_g = external global i8, align 1
@H5_libterm_g = external global i8, align 1

; Function Attrs: nounwind uwtable
define internal i32 @H5EA__cache_hdr_get_initial_load_size(ptr noundef %0, ptr noundef %1) #0 {
  %3 = alloca ptr, align 8
  %4 = alloca ptr, align 8
  %5 = alloca ptr, align 8
  store ptr %0, ptr %3, align 8, !tbaa !3
  store ptr %1, ptr %4, align 8, !tbaa !7
  call void @llvm.lifetime.start.p0(i64 8, ptr %5) #8
  %6 = load ptr, ptr %3, align 8, !tbaa !3
  store ptr %6, ptr %5, align 8, !tbaa !9
  %7 = load i8, ptr @H5EA_init_g, align 1, !tbaa !11, !range !13, !noundef !14
  %8 = trunc i8 %7 to i1
  br i1 %8, label %13, label %9

9:                                                ; preds = %2
  %10 = load i8, ptr @H5_libterm_g, align 1, !tbaa !11, !range !13, !noundef !14
  %11 = trunc i8 %10 to i1
  %12 = xor i1 %11, true
  br label %13

13:                                               ; preds = %9, %2
  %14 = phi i1 [ true, %2 ], [ %12, %9 ]
  %15 = xor i1 %14, true
  %16 = xor i1 %15, true
  %17 = zext i1 %16 to i32
  %18 = sext i32 %17 to i64
  %19 = call i64 @llvm.expect.i64(i64 %18, i64 1)
  %20 = icmp ne i64 %19, 0
  br i1 %20, label %21, label %66

21:                                               ; preds = %13
  %22 = load ptr, ptr %5, align 8, !tbaa !9
  %23 = getelementptr inbounds nuw %struct.H5EA_hdr_cache_ud_t, ptr %22, i32 0, i32 0
  %24 = load ptr, ptr %23, align 8, !tbaa !15
  %25 = call zeroext i8 @H5F_sizeof_size(ptr noundef %24)
  %26 = zext i8 %25 to i32
  %27 = add nsw i32 16, %26
  %28 = load ptr, ptr %5, align 8, !tbaa !9
  %29 = getelementptr inbounds nuw %struct.H5EA_hdr_cache_ud_t, ptr %28, i32 0, i32 0
  %30 = load ptr, ptr %29, align 8, !tbaa !15
  %31 = call zeroext i8 @H5F_sizeof_size(ptr noundef %30)
  %32 = zext i8 %31 to i32
  %33 = add nsw i32 %27, %32
  %34 = load ptr, ptr %5, align 8, !tbaa !9
  %35 = getelementptr inbounds nuw %struct.H5EA_hdr_cache_ud_t, ptr %34, i32 0, i32 0
  %36 = load ptr, ptr %35, align 8, !tbaa !15
  %37 = call zeroext i8 @H5F_sizeof_size(ptr noundef %36)
  %38 = zext i8 %37 to i32
  %39 = add nsw i32 %33, %38
  %40 = load ptr, ptr %5, align 8, !tbaa !9
  %41 = getelementptr inbounds nuw %struct.H5EA_hdr_cache_ud_t, ptr %40, i32 0, i32 0
  %42 = load ptr, ptr %41, align 8, !tbaa !15
  %43 = call zeroext i8 @H5F_sizeof_size(ptr noundef %42)
  %44 = zext i8 %43 to i32
  %45 = add nsw i32 %39, %44
  %46 = load ptr, ptr %5, align 8, !tbaa !9
  %47 = getelementptr inbounds nuw %struct.H5EA_hdr_cache_ud_t, ptr %46, i32 0, i32 0
  %48 = load ptr, ptr %47, align 8, !tbaa !15
  %49 = call zeroext i8 @H5F_sizeof_size(ptr noundef %48)
  %50 = zext i8 %49 to i32
  %51 = add nsw i32 %45, %50
  %52 = load ptr, ptr %5, align 8, !tbaa !9
  %53 = getelementptr inbounds nuw %struct.H5EA_hdr_cache_ud_t, ptr %52, i32 0, i32 0
  %54 = load ptr, ptr %53, align 8, !tbaa !15
  %55 = call zeroext i8 @H5F_sizeof_size(ptr noundef %54)
  %56 = zext i8 %55 to i32
  %57 = add nsw i32 %51, %56
  %58 = load ptr, ptr %5, align 8, !tbaa !9
  %59 = getelementptr inbounds nuw %struct.H5EA_hdr_cache_ud_t, ptr %58, i32 0, i32 0
  %60 = load ptr, ptr %59, align 8, !tbaa !15
  %61 = call zeroext i8 @H5F_sizeof_addr(ptr noundef %60)
  %62 = zext i8 %61 to i32
  %63 = add nsw i32 %57, %62
  %64 = sext i32 %63 to i64
  %65 = load ptr, ptr %4, align 8, !tbaa !7
  store i64 %64, ptr %65, align 8, !tbaa !19
  br label %66

66:                                               ; preds = %21, %13
  call void @llvm.lifetime.end.p0(i64 8, ptr %5) #8
  ret i32 0
}