; Function Attrs: nounwind uwtable
define internal noundef i32 @H5EA__cache_hdr_get_initial_load_size(ptr noundef readonly captures(none) %0, ptr noundef writeonly captures(none) %1) #0 {
  %3 = load i8, ptr @H5EA_init_g, align 1, !tbaa !3, !range !7, !noundef !8
  %4 = trunc nuw i8 %3 to i1
  %5 = load i8, ptr @H5_libterm_g, align 1, !range !7
  %6 = trunc nuw i8 %5 to i1
  %7 = xor i1 %6, true
  %8 = select i1 %4, i1 true, i1 %7
  br i1 %8, label %9, label %38, !prof !9

9:                                                ; preds = %2
  %10 = load ptr, ptr %0, align 8, !tbaa !10
  %11 = tail call zeroext i8 @H5F_sizeof_size(ptr noundef %10) #6
  %12 = zext i8 %11 to i64
  %13 = add nuw nsw i64 %12, 16
  %14 = load ptr, ptr %0, align 8, !tbaa !10
  %15 = tail call zeroext i8 @H5F_sizeof_size(ptr noundef %14) #6
  %16 = zext i8 %15 to i64
  %17 = add nuw nsw i64 %13, %16
  %18 = load ptr, ptr %0, align 8, !tbaa !10
  %19 = tail call zeroext i8 @H5F_sizeof_size(ptr noundef %18) #6
  %20 = zext i8 %19 to i64
  %21 = add nuw nsw i64 %17, %20
  %22 = load ptr, ptr %0, align 8, !tbaa !10
  %23 = tail call zeroext i8 @H5F_sizeof_size(ptr noundef %22) #6
  %24 = zext i8 %23 to i64
  %25 = add nuw nsw i64 %21, %24
  %26 = load ptr, ptr %0, align 8, !tbaa !10
  %27 = tail call zeroext i8 @H5F_sizeof_size(ptr noundef %26) #6
  %28 = zext i8 %27 to i64
  %29 = add nuw nsw i64 %25, %28
  %30 = load ptr, ptr %0, align 8, !tbaa !10
  %31 = tail call zeroext i8 @H5F_sizeof_size(ptr noundef %30) #6
  %32 = zext i8 %31 to i64
  %33 = add nuw nsw i64 %29, %32
  %34 = load ptr, ptr %0, align 8, !tbaa !10
  %35 = tail call zeroext i8 @H5F_sizeof_addr(ptr noundef %34) #6
  %36 = zext i8 %35 to i64
  %37 = add nuw nsw i64 %33, %36
  store i64 %37, ptr %1, align 8, !tbaa !15
  br label %38

38:                                               ; preds = %9, %2
  ret i32 0
}